; ModuleID = '22/552.c'
source_filename = "22/552.c"
target datalayout = "e-m:e-p270:32:32-p271:32:32-p272:64:64-i64:64-f80:128-n8:16:32:64-S128"
target triple = "x86_64-pc-linux-gnu"

@.str = private unnamed_addr constant [3 x i8] c"%d\00", align 1
@.str.1 = private unnamed_addr constant [3 x i8] c"%c\00", align 1
@.str.2 = private unnamed_addr constant [4 x i8] c"No\0A\00", align 1
@.str.3 = private unnamed_addr constant [4 x i8] c"%d\0A\00", align 1

; Function Attrs: noinline nounwind uwtable
define dso_local i32 @main() #0 {
  %1 = alloca i32, align 4
  %2 = alloca [300 x i32], align 16
  %3 = alloca i32, align 4
  %4 = alloca i32, align 4
  %5 = alloca i32, align 4
  %6 = alloca i32, align 4
  %7 = alloca i32, align 4
  %8 = alloca i8, align 1
  store i32 0, i32* %1, align 4
  store i32 0, i32* %3, align 4
  br label %9

9:                                                ; preds = %20, %0
  %10 = load i32, i32* %3, align 4
  %11 = sext i32 %10 to i64
  %12 = getelementptr inbounds [300 x i32], [300 x i32]* %2, i64 0, i64 %11
  %13 = call i32 (i8*, ...) @__isoc99_scanf(i8* getelementptr inbounds ([3 x i8], [3 x i8]* @.str, i64 0, i64 0), i32* %12)
  %14 = call i32 (i8*, ...) @__isoc99_scanf(i8* getelementptr inbounds ([3 x i8], [3 x i8]* @.str.1, i64 0, i64 0), i8* %8)
  %15 = load i8, i8* %8, align 1
  %16 = sext i8 %15 to i32
  %17 = icmp eq i32 %16, 10
  br i1 %17, label %18, label %19

18:                                               ; preds = %9
  br label %23

19:                                               ; preds = %9
  br label %20

20:                                               ; preds = %19
  %21 = load i32, i32* %3, align 4
  %22 = add nsw i32 %21, 1
  store i32 %22, i32* %3, align 4
  br label %9

23:                                               ; preds = %18
  %24 = load i32, i32* %3, align 4
  %25 = icmp eq i32 %24, 0
  br i1 %25, label %26, label %28

26:                                               ; preds = %23
  %27 = call i32 (i8*, ...) @printf(i8* getelementptr inbounds ([4 x i8], [4 x i8]* @.str.2, i64 0, i64 0))
  br label %132

28:                                               ; preds = %23
  store i32 1, i32* %4, align 4
  br label %29

29:                                               ; preds = %69, %28
  %30 = load i32, i32* %4, align 4
  %31 = load i32, i32* %3, align 4
  %32 = icmp sle i32 %30, %31
  br i1 %32, label %33, label %72

33:                                               ; preds = %29
  %34 = getelementptr inbounds [300 x i32], [300 x i32]* %2, i64 0, i64 0
  %35 = load i32, i32* %34, align 16
  store i32 %35, i32* %5, align 4
  %36 = load i32, i32* %5, align 4
  %37 = load i32, i32* %4, align 4
  %38 = sext i32 %37 to i64
  %39 = getelementptr inbounds [300 x i32], [300 x i32]* %2, i64 0, i64 %38
  %40 = load i32, i32* %39, align 4
  %41 = icmp sgt i32 %36, %40
  br i1 %41, label %42, label %48

42:                                               ; preds = %33
  %43 = load i32, i32* %5, align 4
  store i32 %43, i32* %5, align 4
  %44 = load i32, i32* %4, align 4
  %45 = sext i32 %44 to i64
  %46 = getelementptr inbounds [300 x i32], [300 x i32]* %2, i64 0, i64 %45
  %47 = load i32, i32* %46, align 4
  store i32 %47, i32* %6, align 4
  br label %72

48:                                               ; preds = %33
  %49 = load i32, i32* %5, align 4
  %50 = load i32, i32* %4, align 4
  %51 = sext i32 %50 to i64
  %52 = getelementptr inbounds [300 x i32], [300 x i32]* %2, i64 0, i64 %51
  %53 = load i32, i32* %52, align 4
  %54 = icmp slt i32 %49, %53
  br i1 %54, label %55, label %61

55:                                               ; preds = %48
  %56 = load i32, i32* %5, align 4
  store i32 %56, i32* %6, align 4
  %57 = load i32, i32* %4, align 4
  %58 = sext i32 %57 to i64
  %59 = getelementptr inbounds [300 x i32], [300 x i32]* %2, i64 0, i64 %58
  %60 = load i32, i32* %59, align 4
  store i32 %60, i32* %5, align 4
  br label %72

61:                                               ; preds = %48
  %62 = load i32, i32* %4, align 4
  %63 = sext i32 %62 to i64
  %64 = getelementptr inbounds [300 x i32], [300 x i32]* %2, i64 0, i64 %63
  %65 = load i32, i32* %64, align 4
  store i32 %65, i32* %5, align 4
  %66 = icmp ne i32 %65, 0
  br i1 %66, label %67, label %68

67:                                               ; preds = %61
  store i32 -1, i32* %6, align 4
  br label %68

68:                                               ; preds = %67, %61
  br label %69

69:                                               ; preds = %68
  %70 = load i32, i32* %4, align 4
  %71 = add nsw i32 %70, 1
  store i32 %71, i32* %4, align 4
  br label %29

72:                                               ; preds = %55, %42, %29
  %73 = load i32, i32* %6, align 4
  %74 = icmp eq i32 %73, -1
  br i1 %74, label %75, label %77

75:                                               ; preds = %72
  %76 = call i32 (i8*, ...) @printf(i8* getelementptr inbounds ([4 x i8], [4 x i8]* @.str.2, i64 0, i64 0))
  br label %131

77:                                               ; preds = %72
  %78 = load i32, i32* %4, align 4
  store i32 %78, i32* %7, align 4
  br label %79

79:                                               ; preds = %125, %77
  %80 = load i32, i32* %7, align 4
  %81 = load i32, i32* %3, align 4
  %82 = icmp sle i32 %80, %81
  br i1 %82, label %83, label %128

83:                                               ; preds = %79
  %84 = load i32, i32* %7, align 4
  %85 = sext i32 %84 to i64
  %86 = getelementptr inbounds [300 x i32], [300 x i32]* %2, i64 0, i64 %85
  %87 = load i32, i32* %86, align 4
  %88 = load i32, i32* %5, align 4
  %89 = icmp sgt i32 %87, %88
  br i1 %89, label %90, label %96

90:                                               ; preds = %83
  %91 = load i32, i32* %5, align 4
  store i32 %91, i32* %6, align 4
  %92 = load i32, i32* %7, align 4
  %93 = sext i32 %92 to i64
  %94 = getelementptr inbounds [300 x i32], [300 x i32]* %2, i64 0, i64 %93
  %95 = load i32, i32* %94, align 4
  store i32 %95, i32* %5, align 4
  br label %124

96:                                               ; preds = %83
  %97 = load i32, i32* %7, align 4
  %98 = sext i32 %97 to i64
  %99 = getelementptr inbounds [300 x i32], [300 x i32]* %2, i64 0, i64 %98
  %100 = load i32, i32* %99, align 4
  %101 = load i32, i32* %5, align 4
  %102 = icmp eq i32 %100, %101
  br i1 %102, label %103, label %106

103:                                              ; preds = %96
  %104 = load i32, i32* %5, align 4
  store i32 %104, i32* %5, align 4
  %105 = load i32, i32* %6, align 4
  store i32 %105, i32* %6, align 4
  br label %123

106:                                              ; preds = %96
  %107 = load i32, i32* %7, align 4
  %108 = sext i32 %107 to i64
  %109 = getelementptr inbounds [300 x i32], [300 x i32]* %2, i64 0, i64 %108
  %110 = load i32, i32* %109, align 4
  %111 = load i32, i32* %6, align 4
  %112 = icmp sgt i32 %110, %111
  br i1 %112, label %113, label %119

113:                                              ; preds = %106
  %114 = load i32, i32* %5, align 4
  store i32 %114, i32* %5, align 4
  %115 = load i32, i32* %7, align 4
  %116 = sext i32 %115 to i64
  %117 = getelementptr inbounds [300 x i32], [300 x i32]* %2, i64 0, i64 %116
  %118 = load i32, i32* %117, align 4
  store i32 %118, i32* %6, align 4
  br label %122

119:                                              ; preds = %106
  %120 = load i32, i32* %5, align 4
  store i32 %120, i32* %5, align 4
  %121 = load i32, i32* %6, align 4
  store i32 %121, i32* %6, align 4
  br label %122

122:                                              ; preds = %119, %113
  br label %123

123:                                              ; preds = %122, %103
  br label %124

124:                                              ; preds = %123, %90
  br label %125

125:                                              ; preds = %124
  %126 = load i32, i32* %7, align 4
  %127 = add nsw i32 %126, 1
  store i32 %127, i32* %7, align 4
  br label %79

128:                                              ; preds = %79
  %129 = load i32, i32* %6, align 4
  %130 = call i32 (i8*, ...) @printf(i8* getelementptr inbounds ([4 x i8], [4 x i8]* @.str.3, i64 0, i64 0), i32 %129)
  br label %131

131:                                              ; preds = %128, %75
  br label %132

132:                                              ; preds = %131, %26
  ret i32 0
}

declare dso_local i32 @__isoc99_scanf(i8*, ...) #1

declare dso_local i32 @printf(i8*, ...) #1


!llvm.module.flags = !{!0}
!llvm.ident = !{!1}

!0 = !{i32 1, !"wchar_size", i32 4}
!1 = !{!"clang version 10.0.0-4ubuntu1 "}
